#include <math.h>
#include <stdio.h>
#include <stdlib.h>
#include <string.h>

struct shu
{
	int num;
	struct shu *next;
} shu[100];
int main()
{
	struct shu *head, *p;
	int n,m,i;
	scanf("%d%d",&n,&m);
    for(i=0;i<n;i++)
		scanf("%d",&shu[i].num);

    head=&shu[n-m];
	for(i=n-m;i<n;i++)
		shu[i].next=&shu[i+1];
	shu[n-1].next=&shu[0];
	for(i=0;i<n-m-1;i++)
		shu[i].next=&shu[i+1];
    shu[n-m-1].next=NULL;

	p=head;
	{ 
		printf("%d",p->num);
	    	p=p->next;
	   do
	   {
		    printf(" %d",p->num);
	    	p=p->next;
	   }while(p!=NULL);
	}

	 printf("\n");
}