; ModuleID = '52/2310.c'
source_filename = "52/2310.c"
target datalayout = "e-m:e-p270:32:32-p271:32:32-p272:64:64-i64:64-f80:128-n8:16:32:64-S128"
target triple = "x86_64-pc-linux-gnu"

%struct.shu = type { i32, %struct.shu* }

@.str = private unnamed_addr constant [5 x i8] c"%d%d\00", align 1
@.str.1 = private unnamed_addr constant [3 x i8] c"%d\00", align 1
@shu = common dso_local global [100 x %struct.shu] zeroinitializer, align 16
@.str.2 = private unnamed_addr constant [4 x i8] c" %d\00", align 1
@.str.3 = private unnamed_addr constant [2 x i8] c"\0A\00", align 1

; Function Attrs: noinline nounwind uwtable
define dso_local i32 @main() #0 {
  %1 = alloca i32, align 4
  %2 = alloca %struct.shu*, align 8
  %3 = alloca %struct.shu*, align 8
  %4 = alloca i32, align 4
  %5 = alloca i32, align 4
  %6 = alloca i32, align 4
  store i32 0, i32* %1, align 4
  %7 = call i32 (i8*, ...) @__isoc99_scanf(i8* getelementptr inbounds ([5 x i8], [5 x i8]* @.str, i64 0, i64 0), i32* %4, i32* %5)
  store i32 0, i32* %6, align 4
  br label %8

8:                                                ; preds = %18, %0
  %9 = load i32, i32* %6, align 4
  %10 = load i32, i32* %4, align 4
  %11 = icmp slt i32 %9, %10
  br i1 %11, label %12, label %21

12:                                               ; preds = %8
  %13 = load i32, i32* %6, align 4
  %14 = sext i32 %13 to i64
  %15 = getelementptr inbounds [100 x %struct.shu], [100 x %struct.shu]* @shu, i64 0, i64 %14
  %16 = getelementptr inbounds %struct.shu, %struct.shu* %15, i32 0, i32 0
  %17 = call i32 (i8*, ...) @__isoc99_scanf(i8* getelementptr inbounds ([3 x i8], [3 x i8]* @.str.1, i64 0, i64 0), i32* %16)
  br label %18

18:                                               ; preds = %12
  %19 = load i32, i32* %6, align 4
  %20 = add nsw i32 %19, 1
  store i32 %20, i32* %6, align 4
  br label %8

21:                                               ; preds = %8
  %22 = load i32, i32* %4, align 4
  %23 = load i32, i32* %5, align 4
  %24 = sub nsw i32 %22, %23
  %25 = sext i32 %24 to i64
  %26 = getelementptr inbounds [100 x %struct.shu], [100 x %struct.shu]* @shu, i64 0, i64 %25
  store %struct.shu* %26, %struct.shu** %2, align 8
  %27 = load i32, i32* %4, align 4
  %28 = load i32, i32* %5, align 4
  %29 = sub nsw i32 %27, %28
  store i32 %29, i32* %6, align 4
  br label %30

30:                                               ; preds = %43, %21
  %31 = load i32, i32* %6, align 4
  %32 = load i32, i32* %4, align 4
  %33 = icmp slt i32 %31, %32
  br i1 %33, label %34, label %46

34:                                               ; preds = %30
  %35 = load i32, i32* %6, align 4
  %36 = add nsw i32 %35, 1
  %37 = sext i32 %36 to i64
  %38 = getelementptr inbounds [100 x %struct.shu], [100 x %struct.shu]* @shu, i64 0, i64 %37
  %39 = load i32, i32* %6, align 4
  %40 = sext i32 %39 to i64
  %41 = getelementptr inbounds [100 x %struct.shu], [100 x %struct.shu]* @shu, i64 0, i64 %40
  %42 = getelementptr inbounds %struct.shu, %struct.shu* %41, i32 0, i32 1
  store %struct.shu* %38, %struct.shu** %42, align 8
  br label %43

43:                                               ; preds = %34
  %44 = load i32, i32* %6, align 4
  %45 = add nsw i32 %44, 1
  store i32 %45, i32* %6, align 4
  br label %30

46:                                               ; preds = %30
  %47 = load i32, i32* %4, align 4
  %48 = sub nsw i32 %47, 1
  %49 = sext i32 %48 to i64
  %50 = getelementptr inbounds [100 x %struct.shu], [100 x %struct.shu]* @shu, i64 0, i64 %49
  %51 = getelementptr inbounds %struct.shu, %struct.shu* %50, i32 0, i32 1
  store %struct.shu* getelementptr inbounds ([100 x %struct.shu], [100 x %struct.shu]* @shu, i64 0, i64 0), %struct.shu** %51, align 8
  store i32 0, i32* %6, align 4
  br label %52

52:                                               ; preds = %68, %46
  %53 = load i32, i32* %6, align 4
  %54 = load i32, i32* %4, align 4
  %55 = load i32, i32* %5, align 4
  %56 = sub nsw i32 %54, %55
  %57 = sub nsw i32 %56, 1
  %58 = icmp slt i32 %53, %57
  br i1 %58, label %59, label %71

59:                                               ; preds = %52
  %60 = load i32, i32* %6, align 4
  %61 = add nsw i32 %60, 1
  %62 = sext i32 %61 to i64
  %63 = getelementptr inbounds [100 x %struct.shu], [100 x %struct.shu]* @shu, i64 0, i64 %62
  %64 = load i32, i32* %6, align 4
  %65 = sext i32 %64 to i64
  %66 = getelementptr inbounds [100 x %struct.shu], [100 x %struct.shu]* @shu, i64 0, i64 %65
  %67 = getelementptr inbounds %struct.shu, %struct.shu* %66, i32 0, i32 1
  store %struct.shu* %63, %struct.shu** %67, align 8
  br label %68

68:                                               ; preds = %59
  %69 = load i32, i32* %6, align 4
  %70 = add nsw i32 %69, 1
  store i32 %70, i32* %6, align 4
  br label %52

71:                                               ; preds = %52
  %72 = load i32, i32* %4, align 4
  %73 = load i32, i32* %5, align 4
  %74 = sub nsw i32 %72, %73
  %75 = sub nsw i32 %74, 1
  %76 = sext i32 %75 to i64
  %77 = getelementptr inbounds [100 x %struct.shu], [100 x %struct.shu]* @shu, i64 0, i64 %76
  %78 = getelementptr inbounds %struct.shu, %struct.shu* %77, i32 0, i32 1
  store %struct.shu* null, %struct.shu** %78, align 8
  %79 = load %struct.shu*, %struct.shu** %2, align 8
  store %struct.shu* %79, %struct.shu** %3, align 8
  %80 = load %struct.shu*, %struct.shu** %3, align 8
  %81 = getelementptr inbounds %struct.shu, %struct.shu* %80, i32 0, i32 0
  %82 = load i32, i32* %81, align 8
  %83 = call i32 (i8*, ...) @printf(i8* getelementptr inbounds ([3 x i8], [3 x i8]* @.str.1, i64 0, i64 0), i32 %82)
  %84 = load %struct.shu*, %struct.shu** %3, align 8
  %85 = getelementptr inbounds %struct.shu, %struct.shu* %84, i32 0, i32 1
  %86 = load %struct.shu*, %struct.shu** %85, align 8
  store %struct.shu* %86, %struct.shu** %3, align 8
  br label %87

87:                                               ; preds = %95, %71
  %88 = load %struct.shu*, %struct.shu** %3, align 8
  %89 = getelementptr inbounds %struct.shu, %struct.shu* %88, i32 0, i32 0
  %90 = load i32, i32* %89, align 8
  %91 = call i32 (i8*, ...) @printf(i8* getelementptr inbounds ([4 x i8], [4 x i8]* @.str.2, i64 0, i64 0), i32 %90)
  %92 = load %struct.shu*, %struct.shu** %3, align 8
  %93 = getelementptr inbounds %struct.shu, %struct.shu* %92, i32 0, i32 1
  %94 = load %struct.shu*, %struct.shu** %93, align 8
  store %struct.shu* %94, %struct.shu** %3, align 8
  br label %95

95:                                               ; preds = %87
  %96 = load %struct.shu*, %struct.shu** %3, align 8
  %97 = icmp ne %struct.shu* %96, null
  br i1 %97, label %87, label %98

98:                                               ; preds = %95
  %99 = call i32 (i8*, ...) @printf(i8* getelementptr inbounds ([2 x i8], [2 x i8]* @.str.3, i64 0, i64 0))
  %100 = load i32, i32* %1, align 4
  ret i32 %100
}

declare dso_local i32 @__isoc99_scanf(i8*, ...) #1

declare dso_local i32 @printf(i8*, ...) #1


!llvm.module.flags = !{!0}
!llvm.ident = !{!1}

!0 = !{i32 1, !"wchar_size", i32 4}
!1 = !{!"clang version 10.0.0-4ubuntu1 "}
